(dp0
S'polygon78'
p1
(lp2
(lp3
F-47.0313
aF0.0
aF350.756
aF4.64742
aF75.4732
aa(lp4
(lp5
(lp6
I9
aI57
aa(lp7
I5
aI59
aa(lp8
I13
aI97
aa(lp9
I7
aI105
aa(lp10
I2
aI139
aaaa(lp11
F98423.5
aF21842.3
aasS'polygon79'
p12
(lp13
(lp14
F-46.2011
aF0.0
aF830.693
aF6.72664
aF123.493
aa(lp15
(lp16
(lp17
I9
aI39
aa(lp18
I6
aI61
aa(lp19
I3
aI62
aa(lp20
I4
aI82
aa(lp21
I1
aI88
aa(lp22
I14
aI116
aa(lp23
I7
aI143
aaaa(lp24
F98292.4
aF21671.7
aasS'polygon72'
p25
(lp26
(lp27
F-47.0147
aF0.0
aF368.684
aF4.75507
aF77.5349
aa(lp28
(lp29
(lp30
I13
aI11
aa(lp31
I5
aI27
aa(lp32
I15
aI31
aa(lp33
I9
aI41
aa(lp34
I1
aI121
aaaa(lp35
F98244.7
aF21778.7
aasS'polygon73'
p36
(lp37
(lp38
F-48.4304
aF0.0
aF363.482
aF4.70996
aF77.1731
aa(lp39
(lp40
(lp41
I9
aI8
aa(lp42
I12
aI30
aa(lp43
I5
aI49
aa(lp44
I1
aI50
aa(lp45
I14
aI92
aaaa(lp46
F98316.2
aF21811.0
aasS'polygon70'
p47
(lp48
(lp49
F0.126172
aF0.0
aF55.1987
aF1.62902
aF33.8847
aa(lp50
(lp51
(lp52
I10
aI0
aa(lp53
I15
aI113
aa(lp54
I7
aI119
aa(lp55
I15
aI123
aa(lp56
I12
aI141
aa(lp57
I15
aI144
aaaa(lp58
F98260.0
aF21949.0
aasS'polygon71'
p59
(lp60
(lp61
F-40.5045
aF0.0
aF448.814
aF4.87898
aF91.9893
aa(lp62
(lp63
(lp64
I3
aI15
aa(lp65
I1
aI34
aa(lp66
I6
aI116
aa(lp67
I14
aI149
aaaa(lp68
F98446.5
aF21599.8
aasS'polygon76'
p69
(lp70
(lp71
F-47.6653
aF0.0
aF349.151
aF4.6134
aF75.6819
aa(lp72
(lp73
(lp74
I12
aI48
aa(lp75
I9
aI93
aa(lp76
I5
aI98
aa(lp77
I1
aI103
aaaa(lp78
F98378.9
aF21802.9
aasS'polygon77'
p79
(lp80
(lp81
F-46.2361
aF0.0
aF256.443
aF3.87848
aF66.1195
aa(lp82
(lp83
(lp84
I6
aI50
aa(lp85
I9
aI92
aa(lp86
I13
aI93
aa(lp87
I1
aI98
aaaa(lp88
F98348.5
aF21807.8
aasS'polygon74'
p89
(lp90
(lp91
F-46.4295
aF0.0
aF617.338
aF5.78091
aF106.789
aa(lp92
(lp93
(lp94
I13
aI49
aa(lp95
I1
aI54
aa(lp96
I6
aI69
aa(lp97
I15
aI99
aa(lp98
I9
aI100
aa(lp99
I4
aI120
aa(lp100
I12
aI133
aa(lp101
I2
aI150
aaaa(lp102
F98273.5
aF21857.6
aasS'polygon75'
p103
(lp104
(lp105
F-47.2556
aF0.0
aF4978.47
aF6.73939
aF738.712
aa(lp106
(lp107
(lp108
I14
aI27
aa(lp109
I8
aI58
aa(lp110
I12
aI63
aa(lp111
I10
aI64
aa(lp112
I2
aI67
aa(lp113
I1
aI69
aa(lp114
I10
aI80
aa(lp115
I0
aI100
aa(lp116
I9
aI101
aa(lp117
I13
aI102
aa(lp118
I11
aI109
aa(lp119
I2
aI112
aa(lp120
I3
aI115
aa(lp121
I3
aI126
aa(lp122
I12
aI138
aa(lp123
I1
aI141
aa(lp124
I6
aI145
aa(lp125
I15
aI146
aa(lp126
I4
aI151
aaaa(lp127
F98176.8
aF21831.9
aasS'polygon130'
p128
(lp129
(lp130
F-40.461
aF0.0
aF462.628
aF4.28181
aF108.045
aa(lp131
(lp132
(lp133
I10
aI47
aa(lp134
I14
aI85
aa(lp135
I1
aI90
aa(lp136
I9
aI91
aa(lp137
I5
aI97
aaaa(lp138
F98492.4
aF21749.6
aasS'polygon131'
p139
(lp140
(lp141
F-41.2984
aF0.0
aF342.896
aF3.92354
aF87.3946
aa(lp142
(lp143
(lp144
I14
aI16
aa(lp145
I10
aI22
aa(lp146
I6
aI47
aa(lp147
I2
aI85
aa(lp148
I7
aI136
aaaa(lp149
F98497.3
aF21693.0
aasS'polygon132'
p150
(lp151
(lp152
F-40.2699
aF0.0
aF185.265
aF3.36233
aF55.1001
aa(lp153
(lp154
(lp155
I14
aI6
aa(lp156
I2
aI23
aa(lp157
I7
aI24
aa(lp158
I15
aI37
aa(lp159
I10
aI38
aa(lp160
I4
aI91
aaaa(lp161
F98445.7
aF21675.1
aasS'polygon149'
p162
(lp163
(lp164
F-42.871
aF0.0
aF1205.25
aF7.51693
aF160.338
aa(lp165
(lp166
(lp167
I2
aI1
aa(lp168
I7
aI7
aa(lp169
I0
aI14
aa(lp170
I4
aI34
aa(lp171
I6
aI71
aa(lp172
I6
aI116
aaaa(lp173
F98494.8
aF21566.9
aasS'polygon148'
p174
(lp175
(lp176
F-47.5601
aF0.0
aF248.496
aF3.81691
aF65.1039
aa(lp177
(lp178
(lp179
I9
aI60
aa(lp180
I13
aI81
aa(lp181
I6
aI107
aa(lp182
I1
aI134
aaaa(lp183
F98232.6
aF21734.4
aasS'polygon133'
p184
(lp185
(lp186
F-47.7083
aF0.0
aF382.749
aF4.82901
aF79.2603
aa(lp187
(lp188
(lp189
I13
aI8
aa(lp190
I1
aI49
aa(lp191
I4
aI74
aa(lp192
I5
aI100
aa(lp193
I9
aI121
aaaa(lp194
F98284.8
aF21815.3
aasS'polygon141'
p195
(lp196
(lp197
F52.2622
aF0.0
aF866.965
aF4.289
aF202.137
aa(lp198
(lp199
(lp200
I4
aI0
aa(lp201
I0
aI52
aa(lp202
I9
aI69
aa(lp203
I4
aI70
aa(lp204
I9
aI75
aa(lp205
I0
aI94
aa(lp206
I11
aI100
aa(lp207
I5
aI120
aa(lp208
I2
aI144
aa(lp209
I15
aI150
aaaa(lp210
F98265.8
aF21897.1
aasS'polygon134'
p211
(lp212
(lp213
F-46.5532
aF0.0
aF331.238
aF4.49183
aF73.7424
aa(lp214
(lp215
(lp216
I13
aI10
aa(lp217
I1
aI11
aa(lp218
I15
aI28
aa(lp219
I5
aI41
aa(lp220
I12
aI81
aa(lp221
I7
aI107
aa(lp222
I9
aI148
aaaa(lp223
F98246.3
aF21746.8
aasS'polygon143'
p224
(lp225
(lp226
F-47.5788
aF0.0
aF276.443
aF4.08835
aF67.6173
aa(lp227
(lp228
(lp229
I12
aI39
aa(lp230
I1
aI61
aa(lp231
I15
aI79
aa(lp232
I5
aI108
aa(lp233
I9
aI128
aa(lp234
I6
aI152
aaaa(lp235
F98248.8
aF21685.1
aasS'polygon142'
p236
(lp237
(lp238
F-46.5546
aF0.0
aF1647.64
aF9.25557
aF178.016
aa(lp239
(lp240
(lp241
I13
aI7
aa(lp242
I11
aI40
aa(lp243
I4
aI64
aa(lp244
I5
aI80
aa(lp245
I3
aI109
aa(lp246
I9
aI110
aa(lp247
I4
aI118
aa(lp248
I1
aI127
aaaa(lp249
F98124.4
aF21658.9
aasS'polygon145'
p250
(lp251
(lp252
F41.3518
aF0.0
aF786.311
aF5.69617
aF138.042
aa(lp253
(lp254
(lp255
I13
aI58
aa(lp256
I14
aI75
aa(lp257
I11
aI83
aa(lp258
I12
aI101
aa(lp259
I3
aI118
aa(lp260
I2
aI151
aaaa(lp261
F98116.1
aF21880.4
aasS'polygon144'
p262
(lp263
(lp264
F54.3644
aF0.0
aF124.118
aF2.59569
aF47.817
aa(lp265
(lp266
(lp267
I13
aI52
aa(lp268
I7
aI70
aa(lp269
I0
aI123
aa(lp270
I10
aI141
aaaa(lp271
F98303.5
aF21945.8
aasS'polygon147'
p272
(lp273
(lp274
F-26.3355
aF0.0
aF416.262
aF4.67821
aF88.9789
aa(lp275
(lp276
(lp277
I12
aI18
aa(lp278
I12
aI20
aa(lp279
I9
aI45
aa(lp280
I6
aI65
aa(lp281
I5
aI66
aaaa(lp282
F98566.8
aF21818.0
aasS'polygon135'
p283
(lp284
(lp285
F-46.6937
aF0.0
aF186.02
aF3.36904
aF55.2145
aa(lp286
(lp287
(lp288
I6
aI26
aa(lp289
I9
aI50
aa(lp290
I13
aI98
aa(lp291
I2
aI104
aaaa(lp292
F98348.9
aF21837.7
aasS'polygon136'
p293
(lp294
(lp295
F-41.3356
aF0.0
aF177.48
aF3.31173
aF53.5913
aa(lp296
(lp297
(lp298
I14
aI22
aa(lp299
I10
aI23
aa(lp300
I2
aI47
aa(lp301
I6
aI91
aa(lp302
I15
aI131
aaaa(lp303
F98466.1
aF21699.0
aasS'polygon137'
p304
(lp305
(lp306
F-47.0125
aF0.0
aF242.985
aF3.74937
aF64.8069
aa(lp307
(lp308
(lp309
I13
aI60
aa(lp310
I6
aI63
aa(lp311
I1
aI107
aa(lp312
I4
aI138
aa(lp313
I12
aI152
aaaa(lp314
F98201.8
aF21739.7
aasS'polygon49'
p315
(lp316
(lp317
F-45.4148
aF0.0
aF391.402
aF4.89598
aF79.9436
aa(lp318
(lp319
(lp320
I12
aI8
aa(lp321
I15
aI50
aa(lp322
I13
aI73
aa(lp323
I5
aI74
aa(lp324
I1
aI99
aa(lp325
I9
aI133
aaaa(lp326
F98300.0
aF21829.0
aasS'polygon48'
p327
(lp328
(lp329
F-47.2694
aF0.0
aF2179.77
aF6.34545
aF343.517
aa(lp330
(lp331
(lp332
I13
aI24
aa(lp333
I6
aI25
aa(lp334
I4
aI76
aa(lp335
I7
aI87
aa(lp336
I9
aI88
aa(lp337
I14
aI91
aa(lp338
I5
aI93
aa(lp339
I1
aI97
aa(lp340
I3
aI103
aaaa(lp341
F98384.3
aF21749.8
aasS'polygon47'
p342
(lp343
(lp344
F-39.5051
aF0.0
aF181.833
aF3.32764
aF54.6433
aa(lp345
(lp346
(lp347
I0
aI85
aa(lp348
I8
aI91
aa(lp349
I2
aI130
aa(lp350
I14
aI131
aa(lp351
I10
aI136
aaaa(lp352
F98476.5
aF21711.8
aasS'polygon46'
p353
(lp354
(lp355
F-40.2261
aF0.0
aF365.694
aF4.02042
aF90.9592
aa(lp356
(lp357
(lp358
I2
aI17
aa(lp359
I14
aI19
aa(lp360
I13
aI43
aa(lp361
I9
aI90
aa(lp362
I5
aI122
aaaa(lp363
F98516.2
aF21770.9
aasS'polygon45'
p364
(lp365
(lp366
F-39.5368
aF0.0
aF354.291
aF4.29535
aF82.4825
aa(lp367
(lp368
(lp369
I10
aI17
aa(lp370
I14
aI18
aa(lp371
I5
aI65
aa(lp372
I1
aI147
aaaa(lp373
F98543.8
aF21801.6
aasS'polygon44'
p374
(lp375
(lp376
F0.126101
aF0.0
aF680.288
aF5.33459
aF127.524
aa(lp377
(lp378
(lp379
I15
aI113
aa(lp380
I15
aI114
aa(lp381
I8
aI118
aa(lp382
I0
aI119
aa(lp383
I12
aI126
aa(lp384
I9
aI151
aaaa(lp385
F98182.1
aF21942.7
aasS'polygon43'
p386
(lp387
(lp388
F-41.7402
aF0.0
aF434.521
aF4.70867
aF92.2811
aa(lp389
(lp390
(lp391
I2
aI19
aa(lp392
I5
aI46
aa(lp393
I10
aI85
aa(lp394
I6
aI90
aa(lp395
I14
aI129
aaaa(lp396
F98533.1
aF21734.8
aasS'polygon42'
p397
(lp398
(lp399
F-39.6243
aF0.0
aF418.177
aF4.61369
aF90.6383
aa(lp400
(lp401
(lp402
I10
aI16
aa(lp403
I12
aI35
aa(lp404
I6
aI85
aa(lp405
I14
aI86
aa(lp406
I2
aI129
aaaa(lp407
F98550.2
aF21700.1
aasS'polygon41'
p408
(lp409
(lp410
F-46.9869
aF0.0
aF366.656
aF4.74933
aF77.2016
aa(lp411
(lp412
(lp413
I15
aI11
aa(lp414
I4
aI27
aa(lp415
I1
aI72
aa(lp416
I5
aI102
aa(lp417
I9
aI107
aa(lp418
I13
aI134
aa(lp419
I7
aI138
aaaa(lp420
F98229.9
aF21765.1
aasS'polygon40'
p421
(lp422
(lp423
F-47.682
aF0.0
aF1175.34
aF5.77563
aF203.5
aa(lp424
(lp425
(lp426
I0
aI7
aa(lp427
I4
aI110
aa(lp428
I3
aI142
aaaa(lp429
F98118.0
aF21579.1
aasS'polygon50'
p430
(lp431
(lp432
F-47.6612
aF0.0
aF362.343
aF4.7193
aF76.779
aa(lp433
(lp434
(lp435
I4
aI26
aa(lp436
I7
aI49
aa(lp437
I9
aI73
aa(lp438
I14
aI77
aa(lp439
I12
aI92
aa(lp440
I15
aI98
aa(lp441
I5
aI99
aa(lp442
I1
aI135
aaaa(lp443
F98331.5
aF21824.1
aasS'polygon51'
p444
(lp445
(lp446
F-47.3162
aF0.0
aF379.988
aF4.82758
aF78.7119
aa(lp447
(lp448
(lp449
I9
aI26
aa(lp450
I4
aI52
aa(lp451
I5
aI94
aa(lp452
I1
aI95
aa(lp453
I13
aI104
aa(lp454
I6
aI150
aaaa(lp455
F98344.6
aF21869.7
aasS'polygon52'
p456
(lp457
(lp458
F-45.6247
aF0.0
aF726.742
aF5.84132
aF124.414
aa(lp459
(lp460
(lp461
I12
aI51
aa(lp462
I14
aI53
aa(lp463
I9
aI94
aa(lp464
I13
aI95
aa(lp465
I1
aI113
aa(lp466
I3
aI123
aa(lp467
I8
aI141
aa(lp468
I5
aI144
aaaa(lp469
F98328.0
aF21916.5
aasS'polygon53'
p470
(lp471
(lp472
F-47.9551
aF0.0
aF326.591
aF4.48877
aF72.7573
aa(lp473
(lp474
(lp475
I6
aI52
aa(lp476
I12
aI55
aa(lp477
I9
aI95
aa(lp478
I13
aI96
aa(lp479
I4
aI113
aa(lp480
I0
aI124
aaaa(lp481
F98375.2
aF21896.5
aasS'polygon54'
p482
(lp483
(lp484
F-48.3033
aF0.0
aF588.636
aF5.6949
aF103.362
aa(lp485
(lp486
(lp487
I9
aI74
aa(lp488
I13
aI99
aa(lp489
I2
aI150
aaaa(lp490
F98288.8
aF21871.2
aasS'polygon55'
p491
(lp492
(lp493
F-45.4883
aF0.0
aF267.707
aF3.99336
aF67.0381
aa(lp494
(lp495
(lp496
I4
aI53
aa(lp497
I15
aI59
aa(lp498
I5
aI95
aa(lp499
I1
aI96
aa(lp500
I9
aI104
aa(lp501
I13
aI105
aaaa(lp502
F98376.2
aF21865.8
aasS'polygon56'
p503
(lp504
(lp505
F-47.0911
aF0.0
aF320.79
aF4.40503
aF72.8236
aa(lp506
(lp507
(lp508
I9
aI98
aa(lp509
I13
aI103
aa(lp510
I5
aI104
aa(lp511
I1
aI105
aaaa(lp512
F98377.7
aF21834.0
aasS'polygon57'
p513
(lp514
(lp515
F-47.5796
aF0.0
aF292.874
aF4.20371
aF69.6703
aa(lp516
(lp517
(lp518
I1
aI78
aa(lp519
I14
aI97
aa(lp520
I9
aI103
aa(lp521
I5
aI105
aaaa(lp522
F98408.4
aF21829.6
aasS'polygon58'
p523
(lp524
(lp525
F-47.1504
aF0.0
aF1274.84
aF6.8135
aF187.105
aa(lp526
(lp527
(lp528
I0
aI75
aa(lp529
I9
aI83
aa(lp530
I9
aI101
aa(lp531
I13
aI138
aa(lp532
I5
aI145
aaaa(lp533
F98147.8
aF21823.6
aasS'polygon59'
p534
(lp535
(lp536
F-47.5922
aF0.0
aF325.592
aF4.43102
aF73.4802
aa(lp537
(lp538
(lp539
I7
aI55
aa(lp540
I13
aI78
aa(lp541
I5
aI96
aa(lp542
I9
aI105
aa(lp543
I4
aI124
aa(lp544
I0
aI139
aaaa(lp545
F98407.4
aF21860.8
aasS'polygon25'
p546
(lp547
(lp548
F-47.9756
aF0.0
aF336.651
aF4.512
aF74.6123
aa(lp549
(lp550
(lp551
I7
aI30
aa(lp552
I14
aI48
aa(lp553
I9
aI87
aa(lp554
I5
aI92
aa(lp555
I1
aI93
aaaa(lp556
F98349.0
aF21775.9
aasS'polygon24'
p557
(lp558
(lp559
F-40.9797
aF0.0
aF474.961
aF4.9483
aF95.9846
aa(lp560
(lp561
(lp562
I14
aI15
aa(lp563
I14
aI38
aa(lp564
I5
aI48
aa(lp565
I7
aI88
aa(lp566
I1
aI91
aa(lp567
I10
aI116
aa(lp568
I15
aI132
aaaa(lp569
F98414.6
aF21681.2
aasS'polygon27'
p570
(lp571
(lp572
F-47.5209
aF0.0
aF492.807
aF5.36963
aF91.7767
aa(lp573
(lp574
(lp575
I12
aI41
aa(lp576
I13
aI72
aa(lp577
I6
aI75
aa(lp578
I10
aI102
aa(lp579
I15
aI121
aa(lp580
I2
aI146
aaaa(lp581
F98221.0
aF21805.4
aasS'polygon26'
p582
(lp583
(lp584
F-46.6699
aF0.0
aF289.782
aF4.18939
aF69.1704
aa(lp585
(lp586
(lp587
I12
aI50
aa(lp588
I1
aI51
aa(lp589
I9
aI99
aa(lp590
I15
aI104
aa(lp591
I14
aI135
aa(lp592
I5
aI150
aaaa(lp593
F98329.5
aF21856.0
aasS'polygon21'
p594
(lp595
(lp596
F-42.3914
aF0.0
aF416.822
aF4.56946
aF91.219
aa(lp597
(lp598
(lp599
I13
aI1
aa(lp600
I2
aI3
aa(lp601
I6
aI6
aa(lp602
I15
aI12
aa(lp603
I7
aI15
aa(lp604
I14
aI32
aa(lp605
I10
aI34
aaaa(lp606
F98493.3
aF21632.3
aasS'polygon20'
p607
(lp608
(lp609
F-40.1346
aF0.0
aF177.701
aF3.08625
aF57.5782
aa(lp610
(lp611
(lp612
I11
aI2
aa(lp613
I4
aI18
aa(lp614
I11
aI84
aa(lp615
I11
aI86
aa(lp616
I6
aI89
aa(lp617
I4
aI147
aaaa(lp618
F98574.1
aF21740.7
aasS'polygon23'
p619
(lp620
(lp621
F-47.0319
aF0.0
aF169.058
aF3.22391
aF52.4388
aa(lp622
(lp623
(lp624
I15
aI22
aa(lp625
I14
aI37
aa(lp626
I5
aI91
aa(lp627
I10
aI132
aa(lp628
I2
aI136
aaaa(lp629
F98456.2
aF21686.8
aasS'polygon22'
p630
(lp631
(lp632
F-38.5581
aF0.0
aF423.325
aF4.59832
aF92.0607
aa(lp633
(lp634
(lp635
I13
aI3
aa(lp636
I15
aI16
aa(lp637
I7
aI23
aa(lp638
I14
aI36
aa(lp639
I10
aI37
aa(lp640
I2
aI131
aa(lp641
I6
aI136
aaaa(lp642
F98486.0
aF21680.3
aasS'polygon29'
p643
(lp644
(lp645
F-45.9389
aF0.0
aF281.182
aF4.13196
aF68.0506
aa(lp646
(lp647
(lp648
I5
aI9
aa(lp649
I1
aI87
aa(lp650
I13
aI88
aa(lp651
I10
aI106
aaaa(lp652
F98308.5
aF21739.2
aasS'polygon28'
p653
(lp654
(lp655
F-46.0762
aF0.0
aF269.295
aF4.01539
aF67.0657
aa(lp656
(lp657
(lp658
I1
aI9
aa(lp659
I9
aI10
aa(lp660
I5
aI11
aa(lp661
I13
aI106
aa(lp662
I7
aI134
aaaa(lp663
F98277.3
aF21743.1
aasS'polygon116'
p664
(lp665
(lp666
F-37.3248
aF0.0
aF3017.23
aF13.001
aF232.076
aa(lp667
(lp668
(lp669
I8
aI7
aa(lp670
I0
aI15
aa(lp671
I2
aI24
aa(lp672
I7
aI39
aa(lp673
I14
aI71
aa(lp674
I6
aI79
aa(lp675
I5
aI88
aa(lp676
I14
aI149
aaaa(lp677
F98388.4
aF21627.2
aasS'polygon117'
p678
(lp679
(lp680
F42.0994
aF0.0
aF359.406
aF4.49189
aF80.0122
aa(lp681
(lp682
(lp683
I10
aI7
aa(lp684
I14
aI39
aa(lp685
I6
aI127
aa(lp686
I1
aI128
aa(lp687
I4
aI152
aaaa(lp688
F98211.8
aF21657.6
aasS'polygon114'
p689
(lp690
(lp691
F61.5498
aF0.0
aF89.6052
aF2.33476
aF38.3787
aa(lp692
(lp693
(lp694
I7
aI44
aa(lp695
I10
aI115
aa(lp696
I1
aI119
aa(lp697
I14
aI125
aa(lp698
I9
aI126
aaaa(lp699
F98225.7
aF21940.2
aasS'polygon115'
p700
(lp701
(lp702
F-47.2573
aF0.0
aF189.34
aF3.35901
aF56.3678
aa(lp703
(lp704
(lp705
I13
aI67
aa(lp706
I11
aI75
aa(lp707
I2
aI114
aa(lp708
I1
aI125
aa(lp709
I5
aI126
aaaa(lp710
F98199.1
aF21909.3
aasS'polygon112'
p711
(lp712
(lp713
F42.7984
aF0.0
aF172.786
aF3.2841
aF52.6129
aa(lp714
(lp715
(lp716
I5
aI67
aa(lp717
I14
aI69
aa(lp718
I10
aI75
aa(lp719
I2
aI120
aaaa(lp720
F98220.7
aF21885.6
aasS'polygon113'
p721
(lp722
(lp723
F42.1248
aF0.0
aF1068.98
aF6.94143
aF154.0
aa(lp724
(lp725
(lp726
I7
aI44
aa(lp727
I9
aI52
aa(lp728
I12
aI53
aa(lp729
I15
aI68
aa(lp730
I7
aI70
aa(lp731
I7
aI119
aa(lp732
I7
aI123
aa(lp733
I14
aI124
aa(lp734
I15
aI140
aaaa(lp735
F98370.1
aF21934.5
aasS'polygon110'
p736
(lp737
(lp738
F-89.8738
aF0.0
aF90.1032
aF2.0886
aF43.1405
aa(lp739
(lp740
(lp741
I12
aI40
aa(lp742
I1
aI142
aaaa(lp743
F98102.2
aF21642.1
aasS'polygon111'
p744
(lp745
(lp746
F-47.8464
aF0.0
aF1014.08
aF7.66159
aF132.359
aa(lp747
(lp748
(lp749
I13
aI65
aa(lp750
I0
aI66
aa(lp751
I4
aI68
aa(lp752
I12
aI122
aa(lp753
I7
aI124
aa(lp754
I9
aI139
aa(lp755
I6
aI140
aaaa(lp756
F98460.8
aF21891.8
aasS'polygon118'
p757
(lp758
(lp759
F-47.2001
aF0.0
aF433.592
aF4.78253
aF90.6616
aa(lp760
(lp761
(lp762
I0
aI44
aa(lp763
I11
aI64
aa(lp764
I11
aI83
aa(lp765
I12
aI142
aa(lp766
I11
aI145
aa(lp767
I13
aI151
aaaa(lp768
F98117.6
aF21942.0
aasS'polygon119'
p769
(lp770
(lp771
F0.12621
aF0.0
aF13.5433
aF0.716145
aF18.9114
aa(lp772
(lp773
(lp774
I13
aI0
aa(lp775
I8
aI44
aa(lp776
I15
aI70
aa(lp777
I15
aI113
aa(lp778
I9
aI114
aa(lp779
I10
aI125
aaaa(lp780
F98247.4
aF21950.4
aasS'polygon140'
p781
(lp782
(lp783
F-48.0106
aF0.0
aF793.649
aF6.52506
aF121.631
aa(lp784
(lp785
(lp786
I0
aI68
aa(lp787
I14
aI111
aa(lp788
I7
aI113
aa(lp789
I9
aI124
aaaa(lp790
F98425.5
aF21927.1
aasS'polygon36'
p791
(lp792
(lp793
F-39.4435
aF0.0
aF384.831
aF4.29288
aF89.644
aa(lp794
(lp795
(lp796
I10
aI3
aa(lp797
I14
aI4
aa(lp798
I13
aI12
aa(lp799
I2
aI16
aa(lp800
I6
aI22
aa(lp801
I15
aI35
aaaa(lp802
F98513.6
aF21657.8
aasS'polygon37'
p803
(lp804
(lp805
F-40.7949
aF0.0
aF337.48
aF3.94665
aF85.5105
aa(lp806
(lp807
(lp808
I14
aI3
aa(lp809
I10
aI6
aa(lp810
I2
aI22
aa(lp811
I6
aI23
aa(lp812
I7
aI132
aaaa(lp813
F98476.9
aF21669.2
aasS'polygon34'
p814
(lp815
(lp816
F-39.491
aF0.0
aF366.683
aF4.21252
aF87.0459
aa(lp817
(lp818
(lp819
I14
aI1
aa(lp820
I6
aI15
aa(lp821
I2
aI21
aa(lp822
I9
aI71
aa(lp823
I12
aI149
aaaa(lp824
F98483.2
aF21620.4
aasS'polygon35'
p825
(lp826
(lp827
F-41.5604
aF0.0
aF356.997
aF4.09497
aF87.1793
aa(lp828
(lp829
(lp830
I14
aI2
aa(lp831
I10
aI4
aa(lp832
I6
aI16
aa(lp833
I7
aI36
aa(lp834
I4
aI42
aa(lp835
I2
aI86
aaaa(lp836
F98551.7
aF21646.8
aasS'polygon32'
p837
(lp838
(lp839
F-40.3899
aF0.0
aF339.483
aF3.94414
aF86.0727
aa(lp840
(lp841
(lp842
I10
aI1
aa(lp843
I14
aI5
aa(lp844
I2
aI12
aa(lp845
I6
aI21
aa(lp846
I15
aI33
aaaa(lp847
F98520.4
aF21610.2
aasS'polygon33'
p848
(lp849
(lp850
F-38.4928
aF0.0
aF332.408
aF3.97366
aF83.6529
aa(lp851
(lp852
(lp853
I10
aI5
aa(lp854
I6
aI12
aa(lp855
I2
aI13
aa(lp856
I7
aI32
aaaa(lp857
F98558.4
aF21598.9
aasS'polygon30'
p858
(lp859
(lp860
F-47.6057
aF0.0
aF333.551
aF4.48465
aF74.3762
aa(lp861
(lp862
(lp863
I5
aI8
aa(lp864
I9
aI9
aa(lp865
I15
aI25
aa(lp866
I4
aI73
aa(lp867
I13
aI87
aa(lp868
I1
aI92
aaaa(lp869
F98317.9
aF21779.8
aasS'polygon31'
p870
(lp871
(lp872
F-45.6726
aF0.0
aF371.737
aF4.79203
aF77.574
aa(lp873
(lp874
(lp875
I1
aI8
aa(lp876
I13
aI9
aa(lp877
I9
aI11
aa(lp878
I7
aI72
aa(lp879
I5
aI121
aaaa(lp880
F98275.6
aF21774.8
aasS'polygon38'
p881
(lp882
(lp883
F-39.4479
aF0.0
aF181.222
aF3.31587
aF54.6529
aa(lp884
(lp885
(lp886
I15
aI6
aa(lp887
I14
aI15
aa(lp888
I6
aI24
aa(lp889
I2
aI132
aaaa(lp890
F98436.0
aF21663.3
aasS'polygon39'
p891
(lp892
(lp893
F-47.3307
aF0.0
aF2319.22
aF8.74686
aF265.149
aa(lp894
(lp895
(lp896
I9
aI7
aa(lp897
I2
aI62
aa(lp898
I1
aI79
aa(lp899
I1
aI88
aa(lp900
I15
aI116
aa(lp901
I6
aI117
aa(lp902
I6
aI127
aa(lp903
I5
aI128
aa(lp904
I4
aI143
aaaa(lp905
F98253.5
aF21634.8
aasS'polygon146'
p906
(lp907
(lp908
F-46.1786
aF0.0
aF501.211
aF5.31001
aF94.3898
aa(lp909
(lp910
(lp911
I10
aI27
aa(lp912
I7
aI75
aa(lp913
I1
aI100
aa(lp914
I13
aI121
aaaa(lp915
F98233.9
aF21819.5
aasS'polygon105'
p916
(lp917
(lp918
F-47.7954
aF0.0
aF315.604
aF4.36171
aF72.3578
aa(lp919
(lp920
(lp921
I5
aI55
aa(lp922
I9
aI56
aa(lp923
I13
aI57
aa(lp924
I1
aI59
aa(lp925
I15
aI78
aa(lp926
I12
aI103
aa(lp927
I7
aI104
aaaa(lp928
F98392.0
aF21847.1
aasS'polygon104'
p929
(lp930
(lp931
F-46.1372
aF0.0
aF372.507
aF4.79265
aF77.7246
aa(lp932
(lp933
(lp934
I7
aI26
aa(lp935
I5
aI51
aa(lp936
I1
aI55
aa(lp937
I13
aI56
aa(lp938
I4
aI95
aa(lp939
I12
aI98
aa(lp940
I15
aI105
aa(lp941
I10
aI135
aaaa(lp942
F98361.1
aF21851.4
aasS'polygon107'
p943
(lp944
(lp945
F-46.8034
aF0.0
aF302.873
aF4.28528
aF70.6775
aa(lp946
(lp947
(lp948
I1
aI41
aa(lp949
I12
aI60
aa(lp950
I15
aI134
aa(lp951
I9
aI137
aa(lp952
I5
aI138
aa(lp953
I14
aI148
aaaa(lp954
F98215.8
aF21751.2
aasS'polygon106'
p955
(lp956
(lp957
F-48.1985
aF0.0
aF334.048
aF4.48863
aF74.421
aa(lp958
(lp959
(lp960
I4
aI9
aa(lp961
I7
aI10
aa(lp962
I5
aI28
aa(lp963
I2
aI29
aa(lp964
I13
aI62
aa(lp965
I9
aI82
aa(lp966
I14
aI88
aaaa(lp967
F98294.2
aF21724.3
aasS'polygon101'
p968
(lp969
(lp970
F-47.0205
aF0.0
aF1174.68
aF6.37581
aF184.24
aa(lp971
(lp972
(lp973
I1
aI58
aa(lp974
I13
aI63
aa(lp975
I11
aI64
aa(lp976
I1
aI75
aa(lp977
I9
aI83
aa(lp978
I12
aI109
aa(lp979
I14
aI138
aa(lp980
I4
aI145
aaaa(lp981
F98133.8
aF21810.4
aasS'polygon100'
p982
(lp983
(lp984
F-47.2452
aF0.0
aF590.592
aF5.68369
aF103.91
aa(lp985
(lp986
(lp987
I5
aI69
aa(lp988
I1
aI74
aa(lp989
I8
aI75
aa(lp990
I12
aI121
aa(lp991
I13
aI133
aa(lp992
I3
aI141
aa(lp993
I9
aI146
aaaa(lp994
F98259.1
aF21843.9
aasS'polygon103'
p995
(lp996
(lp997
F-47.3551
aF0.0
aF361.468
aF4.71137
aF76.7225
aa(lp998
(lp999
(lp1000
I11
aI48
aa(lp1001
I5
aI56
aa(lp1002
I1
aI57
aa(lp1003
I9
aI76
aa(lp1004
I15
aI97
aa(lp1005
I7
aI98
aa(lp1006
I4
aI105
aaaa(lp1007
F98393.9
aF21815.7
aasS'polygon102'
p1008
(lp1009
(lp1010
F-47.5243
aF0.0
aF338.204
aF4.56432
aF74.0974
aa(lp1011
(lp1012
(lp1013
I2
aI27
aa(lp1014
I13
aI41
aa(lp1015
I5
aI75
aa(lp1016
I9
aI138
aaaa(lp1017
F98208.0
aF21789.5
aasS'polygon109'
p1018
(lp1019
(lp1020
F51.5298
aF0.0
aF585.094
aF4.76488
aF122.793
aa(lp1021
(lp1022
(lp1023
I2
aI63
aa(lp1024
I7
aI64
aa(lp1025
I3
aI75
aa(lp1026
I9
aI80
aa(lp1027
I4
aI101
aa(lp1028
I13
aI127
aa(lp1029
I11
aI142
aa(lp1030
I14
aI152
aaaa(lp1031
F98156.6
aF21738.0
aasS'polygon108'
p1032
(lp1033
(lp1034
F-46.2162
aF0.0
aF316.471
aF4.38589
aF72.1566
aa(lp1035
(lp1036
(lp1037
I5
aI60
aa(lp1038
I15
aI61
aa(lp1039
I1
aI81
aa(lp1040
I8
aI127
aa(lp1041
I13
aI143
aa(lp1042
I7
aI152
aaaa(lp1043
F98233.6
aF21702.9
aasS'polygon138'
p1044
(lp1045
(lp1046
F-45.393
aF0.0
aF381.955
aF4.86281
aF78.5462
aa(lp1047
(lp1048
(lp1049
I15
aI41
aa(lp1050
I5
aI58
aa(lp1051
I10
aI63
aa(lp1052
I4
aI75
aa(lp1053
I6
aI101
aa(lp1054
I1
aI102
aa(lp1055
I13
aI107
aa(lp1056
I12
aI137
aaaa(lp1057
F98193.7
aF21775.6
aasS'polygon139'
p1058
(lp1059
(lp1060
F-47.907
aF0.0
aF802.315
aF6.56167
aF122.273
aa(lp1061
(lp1062
(lp1063
I8
aI59
aa(lp1064
I10
aI78
aa(lp1065
I12
aI97
aa(lp1066
I1
aI111
aa(lp1067
I13
aI122
aa(lp1068
I5
aI124
aaaa(lp1069
F98436.7
aF21870.0
aasS'polygon8'
p1070
(lp1071
(lp1072
F-46.1792
aF0.0
aF375.3
aF4.78659
aF78.4065
aa(lp1073
(lp1074
(lp1075
I11
aI9
aa(lp1076
I13
aI30
aa(lp1077
I9
aI31
aa(lp1078
I4
aI49
aa(lp1079
I1
aI73
aa(lp1080
I8
aI121
aa(lp1081
I5
aI133
aaaa(lp1082
F98301.7
aF21797.4
aasS'polygon9'
p1083
(lp1084
(lp1085
F-45.8557
aF0.0
aF380.193
aF4.83897
aF78.569
aa(lp1086
(lp1087
(lp1088
I3
aI8
aa(lp1089
I7
aI11
aa(lp1090
I9
aI28
aa(lp1091
I13
aI29
aa(lp1092
I1
aI30
aa(lp1093
I5
aI31
aa(lp1094
I0
aI87
aa(lp1095
I12
aI106
aaaa(lp1096
F98292.2
aF21756.4
aasS'polygon6'
p1097
(lp1098
(lp1099
F-40.3838
aF0.0
aF364.718
aF4.07302
aF89.5449
aa(lp1100
(lp1101
(lp1102
I15
aI3
aa(lp1103
I10
aI15
aa(lp1104
I14
aI21
aa(lp1105
I2
aI37
aa(lp1106
I7
aI38
aa(lp1107
I6
aI132
aaaa(lp1108
F98466.5
aF21656.3
aasS'polygon7'
p1109
(lp1110
(lp1111
F-45.7388
aF0.0
aF2197.65
aF8.56593
aF256.557
aa(lp1112
(lp1113
(lp1114
I1
aI39
aa(lp1115
I8
aI40
aa(lp1116
I0
aI116
aa(lp1117
I2
aI117
aa(lp1118
I3
aI127
aa(lp1119
I5
aI142
aa(lp1120
I15
aI149
aaaa(lp1121
F98176.9
aF21589.8
aasS'polygon4'
p1122
(lp1123
(lp1124
F-38.937
aF0.0
aF326.4
aF4.02027
aF81.1886
aa(lp1125
(lp1126
(lp1127
I15
aI2
aa(lp1128
I10
aI12
aa(lp1129
I14
aI13
aa(lp1130
I2
aI35
aa(lp1131
I6
aI36
aaaa(lp1132
F98542.7
aF21634.2
aasS'polygon5'
p1133
(lp1134
(lp1135
F-40.0937
aF0.0
aF337.16
aF3.99484
aF84.3988
aa(lp1136
(lp1137
(lp1138
I7
aI1
aa(lp1139
I2
aI13
aa(lp1140
I10
aI14
aa(lp1141
I6
aI32
aa(lp1142
I2
aI33
aaaa(lp1143
F98548.3
aF21586.3
aasS'polygon2'
p1144
(lp1145
(lp1146
F-38.3795
aF0.0
aF253.34
aF3.71504
aF68.1931
aa(lp1147
(lp1148
(lp1149
I7
aI4
aa(lp1150
I11
aI13
aa(lp1151
I3
aI20
aa(lp1152
I6
aI35
aa(lp1153
I4
aI86
aaaa(lp1154
F98573.1
aF21625.8
aasS'polygon3'
p1155
(lp1156
(lp1157
F-44.1074
aF0.0
aF355.895
aF4.1164
aF86.4579
aa(lp1158
(lp1159
(lp1160
I7
aI6
aa(lp1161
I14
aI12
aa(lp1162
I10
aI21
aa(lp1163
I5
aI22
aa(lp1164
I2
aI36
aa(lp1165
I6
aI37
aaaa(lp1166
F98503.7
aF21645.3
aasS'polygon0'
p1167
(lp1168
(lp1169
F-31.8539
aF0.0
aF72.9352
aF2.03284
aF35.8785
aa(lp1170
(lp1171
(lp1172
I2
aI70
aa(lp1173
I5
aI119
aa(lp1174
I11
aI120
aa(lp1175
I8
aI125
aa(lp1176
I12
aI141
aaaa(lp1177
F98253.0
aF21937.7
aasS'polygon1'
p1178
(lp1179
(lp1180
F-40.3774
aF0.0
aF340.333
aF3.92015
aF86.8163
aa(lp1181
(lp1182
(lp1183
I15
aI5
aa(lp1184
I14
aI14
aa(lp1185
I5
aI21
aa(lp1186
I2
aI32
aa(lp1187
I6
aI34
aa(lp1188
I10
aI149
aaaa(lp1189
F98510.6
aF21598.0
aasS'polygon129'
p1190
(lp1191
(lp1192
F-39.7851
aF0.0
aF435.737
aF4.63297
aF94.0513
aa(lp1193
(lp1194
(lp1195
I5
aI19
aa(lp1196
I10
aI42
aa(lp1197
I6
aI43
aa(lp1198
I2
aI84
aa(lp1199
I7
aI85
aa(lp1200
I12
aI86
aaaa(lp1201
F98560.9
aF21711.7
aasS'polygon128'
p1202
(lp1203
(lp1204
F-47.393
aF0.0
aF283.617
aF4.16234
aF68.1389
aa(lp1205
(lp1206
(lp1207
I13
aI39
aa(lp1208
I9
aI117
aa(lp1209
I1
aI143
aa(lp1210
I5
aI152
aaaa(lp1211
F98233.8
aF21672.0
aasS'polygon127'
p1212
(lp1213
(lp1214
F-47.7475
aF0.0
aF1431.22
aF7.7031
aF185.798
aa(lp1215
(lp1216
(lp1217
I11
aI7
aa(lp1218
I14
aI39
aa(lp1219
I1
aI60
aa(lp1220
I6
aI64
aa(lp1221
I0
aI108
aa(lp1222
I5
aI109
aa(lp1223
I14
aI117
aa(lp1224
I9
aI142
aa(lp1225
I1
aI152
aaaa(lp1226
F98179.3
aF21687.3
aasS'polygon126'
p1227
(lp1228
(lp1229
F41.5541
aF0.0
aF102.087
aF1.92679
aF52.983
aa(lp1230
(lp1231
(lp1232
I4
aI44
aa(lp1233
I11
aI75
aa(lp1234
I1
aI114
aa(lp1235
I13
aI115
aa(lp1236
I8
aI151
aaaa(lp1237
F98189.4
aF21922.7
aasS'polygon125'
p1238
(lp1239
(lp1240
F58.6385
aF0.0
aF83.8408
aF2.09321
aF40.0536
aa(lp1241
(lp1242
(lp1243
I0
aI0
aa(lp1244
I10
aI67
aa(lp1245
I6
aI114
aa(lp1246
I9
aI115
aa(lp1247
I2
aI119
aa(lp1248
I14
aI120
aaaa(lp1249
F98234.1
aF21932.0
aasS'polygon124'
p1250
(lp1251
(lp1252
F-47.8969
aF0.0
aF801.339
aF6.55235
aF122.298
aa(lp1253
(lp1254
(lp1255
I8
aI53
aa(lp1256
I12
aI59
aa(lp1257
I10
aI96
aa(lp1258
I15
aI111
aa(lp1259
I6
aI113
aa(lp1260
I13
aI139
aa(lp1261
I1
aI140
aaaa(lp1262
F98403.2
aF21907.0
aasS'polygon123'
p1263
(lp1264
(lp1265
F0.126149
aF0.0
aF272.566
aF3.47384
aF78.4624
aa(lp1266
(lp1267
(lp1268
I11
aI52
aa(lp1269
I7
aI70
aa(lp1270
I15
aI113
aa(lp1271
I8
aI144
aaaa(lp1272
F98336.0
aF21946.2
aasS'polygon122'
p1273
(lp1274
(lp1275
F-47.7762
aF0.0
aF766.801
aF6.47259
aF118.469
aa(lp1276
(lp1277
(lp1278
I14
aI17
aa(lp1279
I13
aI46
aa(lp1280
I1
aI65
aa(lp1281
I13
aI90
aa(lp1282
I10
aI97
aa(lp1283
I4
aI111
aa(lp1284
I5
aI139
aaaa(lp1285
F98471.7
aF21831.2
aasS'polygon121'
p1286
(lp1287
(lp1288
F-46.2476
aF0.0
aF388.177
aF4.88486
aF79.4653
aa(lp1289
(lp1290
(lp1291
I0
aI8
aa(lp1292
I7
aI27
aa(lp1293
I13
aI31
aa(lp1294
I9
aI72
aa(lp1295
I4
aI100
aa(lp1296
I1
aI133
aa(lp1297
I5
aI146
aaaa(lp1298
F98259.7
aF21792.0
aasS'polygon120'
p1299
(lp1300
(lp1301
F59.226
aF0.0
aF100.178
aF2.22145
aF45.0958
aa(lp1302
(lp1303
(lp1304
I3
aI0
aa(lp1305
I9
aI67
aa(lp1306
I11
aI69
aa(lp1307
I12
aI74
aa(lp1308
I10
aI112
aa(lp1309
I6
aI125
aa(lp1310
I13
aI141
aa(lp1311
I14
aI150
aaaa(lp1312
F98247.5
aF21923.3
aasS'polygon83'
p1313
(lp1314
(lp1315
F-48.4043
aF0.0
aF307.889
aF2.79434
aF110.183
aa(lp1316
(lp1317
(lp1318
I1
aI58
aa(lp1319
I12
aI64
aa(lp1320
I1
aI101
aa(lp1321
I3
aI118
aa(lp1322
I3
aI145
aaaa(lp1323
F98103.8
aF21796.9
aasS'polygon82'
p1324
(lp1325
(lp1326
F-47.1844
aF0.0
aF302.08
aF4.28539
aF70.4906
aa(lp1327
(lp1328
(lp1329
I5
aI10
aa(lp1330
I9
aI61
aa(lp1331
I15
aI62
aa(lp1332
I12
aI79
aa(lp1333
I7
aI81
aa(lp1334
I1
aI106
aaaa(lp1335
F98278.6
aF21711.4
aasS'polygon81'
p1336
(lp1337
(lp1338
F-46.846
aF0.0
aF273.915
aF4.03864
aF67.8235
aa(lp1339
(lp1340
(lp1341
I1
aI10
aa(lp1342
I7
aI60
aa(lp1343
I13
aI61
aa(lp1344
I15
aI82
aa(lp1345
I9
aI108
aa(lp1346
I4
aI134
aa(lp1347
I5
aI148
aaaa(lp1348
F98248.3
aF21716.7
aasS'polygon80'
p1349
(lp1350
(lp1351
F-89.874
aF0.0
aF16.1396
aF0.831385
aF19.4129
aa(lp1352
(lp1353
(lp1354
I3
aI64
aa(lp1355
I2
aI75
aa(lp1356
I1
aI109
aa(lp1357
I13
aI142
aaaa(lp1358
F98100.2
aF21700.4
aasS'polygon87'
p1359
(lp1360
(lp1361
F-45.8861
aF0.0
aF377.969
aF4.82504
aF78.3349
aa(lp1362
(lp1363
(lp1364
I8
aI9
aa(lp1365
I1
aI25
aa(lp1366
I9
aI29
aa(lp1367
I5
aI30
aa(lp1368
I15
aI48
aa(lp1369
I11
aI88
aaaa(lp1370
F98334.2
aF21761.9
aasS'polygon86'
p1371
(lp1372
(lp1373
F-41.5621
aF0.0
aF206.648
aF3.2164
aF64.2483
aa(lp1374
(lp1375
(lp1376
I12
aI2
aa(lp1377
I3
aI20
aa(lp1378
I10
aI35
aa(lp1379
I6
aI42
aa(lp1380
I4
aI84
aa(lp1381
I4
aI129
aaaa(lp1382
F98572.8
aF21680.9
aasS'polygon85'
p1383
(lp1384
(lp1385
F-39.6446
aF0.0
aF462.154
aF4.87457
aF94.8092
aa(lp1386
(lp1387
(lp1388
I12
aI16
aa(lp1389
I14
aI42
aa(lp1390
I2
aI43
aa(lp1391
I8
aI47
aa(lp1392
I5
aI90
aa(lp1393
I15
aI129
aa(lp1394
I6
aI130
aa(lp1395
I10
aI131
aaaa(lp1396
F98522.9
aF21723.3
aasS'polygon84'
p1397
(lp1398
(lp1399
F-41.9078
aF0.0
aF342.113
aF4.10309
aF83.3794
aa(lp1400
(lp1401
(lp1402
I6
aI19
aa(lp1403
I3
aI20
aa(lp1404
I12
aI86
aa(lp1405
I5
aI89
aa(lp1406
I10
aI129
aaaa(lp1407
F98569.7
aF21725.7
aasS'polygon89'
p1408
(lp1409
(lp1410
F-40.5351
aF0.0
aF376.17
aF4.24081
aF88.7023
aa(lp1411
(lp1412
(lp1413
I6
aI17
aa(lp1414
I2
aI18
aa(lp1415
I10
aI19
aa(lp1416
I14
aI20
aa(lp1417
I13
aI84
aaaa(lp1418
F98553.5
aF21759.1
aasS'polygon88'
p1419
(lp1420
(lp1421
F41.4046
aF0.0
aF1407.94
aF7.94056
aF177.31
aa(lp1422
(lp1423
(lp1424
I15
aI24
aa(lp1425
I5
aI29
aa(lp1426
I9
aI39
aa(lp1427
I1
aI48
aa(lp1428
I7
aI62
aa(lp1429
I9
aI79
aa(lp1430
I3
aI87
aa(lp1431
I6
aI106
aa(lp1432
I13
aI116
aaaa(lp1433
F98330.2
aF21699.2
aasS'polygon69'
p1434
(lp1435
(lp1436
F-50.5088
aF0.0
aF132.856
aF2.732
aF48.6295
aa(lp1437
(lp1438
(lp1439
I14
aI74
aa(lp1440
I9
aI75
aa(lp1441
I13
aI100
aa(lp1442
I6
aI112
aa(lp1443
I3
aI120
aa(lp1444
I1
aI141
aaaa(lp1445
F98233.1
aF21874.5
aasS'polygon68'
p1446
(lp1447
(lp1448
F-42.6347
aF0.0
aF936.042
aF5.95795
aF157.108
aa(lp1449
(lp1450
(lp1451
I14
aI66
aa(lp1452
I12
aI111
aa(lp1453
I7
aI113
aa(lp1454
I8
aI140
aaaa(lp1455
F98460.4
aF21931.8
aasS'polygon61'
p1456
(lp1457
(lp1458
F-48.6926
aF0.0
aF295.505
aF4.24955
aF69.538
aa(lp1459
(lp1460
(lp1461
I14
aI79
aa(lp1462
I5
aI81
aa(lp1463
I1
aI82
aa(lp1464
I7
aI108
aa(lp1465
I9
aI143
aaaa(lp1466
F98264.3
aF21698.5
aasS'polygon60'
p1467
(lp1468
(lp1469
F-46.7198
aF0.0
aF312.209
aF4.35397
aF71.7067
aa(lp1470
(lp1471
(lp1472
I15
aI81
aa(lp1473
I4
aI107
aa(lp1474
I13
aI108
aa(lp1475
I9
aI127
aa(lp1476
I5
aI137
aa(lp1477
I1
aI148
aa(lp1478
I9
aI152
aaaa(lp1479
F98217.2
aF21720.9
aasS'polygon63'
p1480
(lp1481
(lp1482
F-49.0659
aF0.0
aF264.785
aF4.05468
aF65.3035
aa(lp1483
(lp1484
(lp1485
I4
aI75
aa(lp1486
I5
aI101
aa(lp1487
I10
aI109
aa(lp1488
I14
aI137
aa(lp1489
I2
aI138
aa(lp1490
I13
aI152
aaaa(lp1491
F98179.8
aF21761.7
aasS'polygon62'
p1492
(lp1493
(lp1494
F43.0994
aF0.0
aF301.241
aF4.10296
aF73.4204
aa(lp1495
(lp1496
(lp1497
I10
aI39
aa(lp1498
I11
aI79
aa(lp1499
I7
aI82
aa(lp1500
I15
aI88
aa(lp1501
I5
aI106
aaaa(lp1502
F98304.7
aF21703.9
aasS'polygon65'
p1503
(lp1504
(lp1505
F-47.8878
aF0.0
aF1044.65
aF7.89774
aF132.272
aa(lp1506
(lp1507
(lp1508
I12
aI17
aa(lp1509
I13
aI45
aa(lp1510
I3
aI66
aa(lp1511
I5
aI111
aa(lp1512
I9
aI122
aa(lp1513
I14
aI147
aaaa(lp1514
F98496.5
aF21853.7
aasS'polygon64'
p1515
(lp1516
(lp1517
F-47.2113
aF0.0
aF537.094
aF5.32456
aF100.871
aa(lp1518
(lp1519
(lp1520
I2
aI75
aa(lp1521
I11
aI80
aa(lp1522
I4
aI83
aa(lp1523
I3
aI101
aa(lp1524
I15
aI109
aa(lp1525
I3
aI118
aa(lp1526
I14
aI127
aa(lp1527
I12
aI142
aaaa(lp1528
F98114.8
aF21751.0
aasS'polygon67'
p1529
(lp1530
(lp1531
F-47.2026
aF0.0
aF198.382
aF3.51918
aF56.3717
aa(lp1532
(lp1533
(lp1534
I10
aI75
aa(lp1535
I13
aI112
aa(lp1536
I5
aI115
aa(lp1537
I1
aI120
aa(lp1538
I2
aI125
aaaa(lp1539
F98210.0
aF21897.1
aasS'polygon66'
p1540
(lp1541
(lp1542
F-49.4362
aF0.0
aF38.5588
aF1.55081
aF24.8637
aa(lp1543
(lp1544
(lp1545
I11
aI65
aa(lp1546
I6
aI68
aa(lp1547
I8
aI111
aa(lp1548
I13
aI147
aaaa(lp1549
F98511.4
aF21896.2
aasS'polygon94'
p1550
(lp1551
(lp1552
F-46.1622
aF0.0
aF698.544
aF5.69116
aF122.742
aa(lp1553
(lp1554
(lp1555
I13
aI51
aa(lp1556
I1
aI52
aa(lp1557
I8
aI141
aa(lp1558
I10
aI150
aaaa(lp1559
F98313.9
aF21902.4
aasS'polygon95'
p1560
(lp1561
(lp1562
F-49.9673
aF0.0
aF279.164
aF4.10151
aF68.0637
aa(lp1563
(lp1564
(lp1565
I9
aI51
aa(lp1566
I5
aI52
aa(lp1567
I1
aI53
aa(lp1568
I13
aI55
aa(lp1569
I12
aI104
aaaa(lp1570
F98359.8
aF21882.9
aasS'polygon96'
p1571
(lp1572
(lp1573
F-51.2558
aF0.0
aF282.306
aF4.10445
aF68.7804
aa(lp1574
(lp1575
(lp1576
I5
aI53
aa(lp1577
I9
aI55
aa(lp1578
I13
aI59
aa(lp1579
I2
aI124
aaaa(lp1580
F98391.4
aF21879.6
aasS'polygon97'
p1581
(lp1582
(lp1583
F-49.5516
aF0.0
aF1390.89
aF6.17353
aF225.299
aa(lp1584
(lp1585
(lp1586
I9
aI48
aa(lp1587
I6
aI57
aa(lp1588
I5
aI78
aa(lp1589
I14
aI90
aa(lp1590
I12
aI91
aa(lp1591
I7
aI103
aa(lp1592
I2
aI122
aa(lp1593
I13
aI130
aa(lp1594
I4
aI139
aaaa(lp1595
F98445.3
aF21802.9
aasS'polygon90'
p1596
(lp1597
(lp1598
F-40.3618
aF0.0
aF522.189
aF4.8749
aF107.118
aa(lp1599
(lp1600
(lp1601
I14
aI43
aa(lp1602
I1
aI46
aa(lp1603
I13
aI85
aa(lp1604
I6
aI97
aa(lp1605
I5
aI122
aa(lp1606
I9
aI130
aaaa(lp1607
F98503.6
aF21760.3
aasS'polygon91'
p1608
(lp1609
(lp1610
F49.5924
aF0.0
aF1207.03
aF7.03184
aF171.652
aa(lp1611
(lp1612
(lp1613
I13
aI23
aa(lp1614
I9
aI24
aa(lp1615
I0
aI47
aa(lp1616
I6
aI48
aa(lp1617
I4
aI97
aa(lp1618
I1
aI130
aa(lp1619
I12
aI132
aa(lp1620
I14
aI136
aaaa(lp1621
F98445.4
aF21709.2
aasS'polygon92'
p1622
(lp1623
(lp1624
F-45.7184
aF0.0
aF305.536
aF4.33062
aF70.5525
aa(lp1625
(lp1626
(lp1627
I13
aI25
aa(lp1628
I9
aI30
aa(lp1629
I4
aI50
aa(lp1630
I6
aI73
aa(lp1631
I1
aI77
aa(lp1632
I15
aI93
aaaa(lp1633
F98332.8
aF21794.4
aasS'polygon93'
p1634
(lp1635
(lp1636
F-45.7968
aF0.0
aF346.685
aF4.62019
aF75.037
aa(lp1637
(lp1638
(lp1639
I9
aI25
aa(lp1640
I13
aI48
aa(lp1641
I1
aI76
aa(lp1642
I5
aI77
aa(lp1643
I7
aI92
aa(lp1644
I4
aI98
aaaa(lp1645
F98364.4
aF21789.7
aasS'polygon152'
p1646
(lp1647
(lp1648
F-47.5547
aF0.0
aF1251.92
aF7.24998
aF172.679
aa(lp1649
(lp1650
(lp1651
I1
aI60
aa(lp1652
I5
aI63
aa(lp1653
I15
aI108
aa(lp1654
I6
aI109
aa(lp1655
I12
aI117
aa(lp1656
I9
aI127
aa(lp1657
I13
aI128
aa(lp1658
I4
aI137
aa(lp1659
I14
aI143
aaaa(lp1660
F98202.6
aF21708.3
aasS'polygon150'
p1661
(lp1662
(lp1663
F-47.743
aF0.0
aF743.481
aF5.88537
aF126.327
aa(lp1664
(lp1665
(lp1666
I13
aI26
aa(lp1667
I14
aI51
aa(lp1668
I10
aI54
aa(lp1669
I10
aI74
aa(lp1670
I2
aI94
aa(lp1671
I12
aI99
aa(lp1672
I6
aI120
aa(lp1673
I7
aI141
aaaa(lp1674
F98301.1
aF21887.9
aasS'polygon151'
p1675
(lp1676
(lp1677
F-47.5197
aF0.0
aF614.178
aF5.84486
aF105.08
aa(lp1678
(lp1679
(lp1680
I1
aI44
aa(lp1681
I12
aI75
aa(lp1682
I5
aI118
aa(lp1683
I0
aI126
aa(lp1684
I10
aI145
aaaa(lp1685
F98143.7
aF21915.5
aasS'polygon98'
p1686
(lp1687
(lp1688
F-46.0367
aF0.0
aF359.374
aF4.68947
aF76.6342
aa(lp1689
(lp1690
(lp1691
I7
aI50
aa(lp1692
I1
aI56
aa(lp1693
I13
aI76
aa(lp1694
I9
aI77
aa(lp1695
I12
aI93
aa(lp1696
I15
aI103
aa(lp1697
I4
aI104
aa(lp1698
I5
aI135
aaaa(lp1699
F98362.3
aF21819.9
aasS'polygon99'
p1700
(lp1701
(lp1702
F-45.5582
aF0.0
aF390.89
aF4.89407
aF79.8701
aa(lp1703
(lp1704
(lp1705
I1
aI26
aa(lp1706
I9
aI49
aa(lp1707
I13
aI50
aa(lp1708
I5
aI54
aa(lp1709
I7
aI74
aa(lp1710
I4
aI150
aaaa(lp1711
F98314.8
aF21842.3
aasS'polygon18'
p1712
(lp1713
(lp1714
F-39.929
aF0.0
aF355.523
aF4.24299
aF83.7907
aa(lp1715
(lp1716
(lp1717
I7
aI17
aa(lp1718
I12
aI20
aa(lp1719
I6
aI45
aa(lp1720
I10
aI89
aa(lp1721
I4
aI147
aaaa(lp1722
F98568.6
aF21779.7
aasS'polygon19'
p1723
(lp1724
(lp1725
F-40.8633
aF0.0
aF356.232
aF4.0919
aF87.0578
aa(lp1726
(lp1727
(lp1728
I5
aI17
aa(lp1729
I10
aI43
aa(lp1730
I6
aI46
aa(lp1731
I14
aI84
aa(lp1732
I2
aI89
aa(lp1733
I13
aI129
aaaa(lp1734
F98543.8
aF21747.5
aasS'polygon14'
p1735
(lp1736
(lp1737
F-39.3397
aF0.0
aF329.63
aF3.96073
aF83.2245
aa(lp1738
(lp1739
(lp1740
I6
aI1
aa(lp1741
I2
aI5
aa(lp1742
I8
aI149
aaaa(lp1743
F98537.8
aF21574.9
aasS'polygon15'
p1744
(lp1745
(lp1746
F-39.7851
aF0.0
aF404.862
aF4.46905
aF90.5925
aa(lp1747
(lp1748
(lp1749
I2
aI6
aa(lp1750
I15
aI21
aa(lp1751
I6
aI24
aa(lp1752
I14
aI34
aa(lp1753
I6
aI38
aa(lp1754
I11
aI71
aa(lp1755
I8
aI116
aaaa(lp1756
F98455.2
aF21644.5
aasS'polygon16'
p1757
(lp1758
(lp1759
F-38.7683
aF0.0
aF330.882
aF3.90025
aF84.8361
aa(lp1760
(lp1761
(lp1762
I7
aI22
aa(lp1763
I14
aI35
aa(lp1764
I10
aI36
aa(lp1765
I2
aI42
aa(lp1766
I4
aI85
aa(lp1767
I6
aI131
aaaa(lp1768
F98524.1
aF21670.4
aasS'polygon17'
p1769
(lp1770
(lp1771
F-38.8868
aF0.0
aF383.128
aF4.31264
aF88.8384
aa(lp1772
(lp1773
(lp1774
I15
aI18
aa(lp1775
I13
aI19
aa(lp1776
I2
aI45
aa(lp1777
I10
aI46
aa(lp1778
I4
aI65
aa(lp1779
I14
aI89
aa(lp1780
I6
aI122
aaaa(lp1781
F98526.4
aF21781.2
aasS'polygon10'
p1782
(lp1783
(lp1784
F-44.7509
aF0.0
aF314.243
aF4.38019
aF71.7419
aa(lp1785
(lp1786
(lp1787
I1
aI28
aa(lp1788
I9
aI81
aa(lp1789
I13
aI82
aa(lp1790
I15
aI106
aa(lp1791
I5
aI134
aaaa(lp1792
F98262.5
aF21729.7
aasS'polygon11'
p1793
(lp1794
(lp1795
F-45.429
aF0.0
aF325.156
aF4.4693
aF72.7532
aa(lp1796
(lp1797
(lp1798
I15
aI9
aa(lp1799
I13
aI28
aa(lp1800
I1
aI31
aa(lp1801
I7
aI41
aa(lp1802
I5
aI72
aa(lp1803
I9
aI134
aaaa(lp1804
F98261.3
aF21761.0
aasS'polygon12'
p1805
(lp1806
(lp1807
F-39.6328
aF0.0
aF366.256
aF4.11738
aF88.9536
aa(lp1808
(lp1809
(lp1810
I6
aI3
aa(lp1811
I2
aI4
aa(lp1812
I15
aI13
aa(lp1813
I7
aI21
aa(lp1814
I10
aI32
aa(lp1815
I14
aI33
aa(lp1816
I5
aI36
aaaa(lp1817
F98531.3
aF21622.5
aasS'polygon13'
p1818
(lp1819
(lp1820
F-39.5742
aF0.0
aF344.887
aF4.16908
aF82.725
aa(lp1821
(lp1822
(lp1823
I3
aI2
aa(lp1824
I6
aI4
aa(lp1825
I10
aI5
aa(lp1826
I7
aI12
aa(lp1827
I10
aI33
aaaa(lp1828
F98568.0
aF21611.3
aas.